target datalayout = "e-m:e-p270:32:32-p271:32:32-p272:64:64-i64:64-i128:128-f80:128-n8:16:32:64-S128"
target triple = "x86_64-pc-linux-gnu"

%struct.quicklistNode = type { ptr, ptr, ptr, i64, i32 }
%struct.quicklistLZF = type { i64, [0 x i8] }

; Function Attrs: nounwind uwtable
define dso_local i32 @__quicklistDecompressNode(ptr noundef %0) #0 {
  %2 = alloca i32, align 4
  %3 = alloca ptr, align 8
  %4 = alloca ptr, align 8
  %5 = alloca ptr, align 8
  %6 = alloca i32, align 4
  store ptr %0, ptr %3, align 8, !tbaa !12
  %7 = load ptr, ptr %3, align 8, !tbaa !12
  %8 = getelementptr inbounds nuw %struct.quicklistNode, ptr %7, i32 0, i32 4
  %9 = load i32, ptr %8, align 8
  %10 = and i32 %9, -1048577
  %11 = or i32 %10, 0
  store i32 %11, ptr %8, align 8
  call void @llvm.lifetime.start.p0(i64 8, ptr %4) #10
  %12 = load ptr, ptr %3, align 8, !tbaa !12
  %13 = getelementptr inbounds nuw %struct.quicklistNode, ptr %12, i32 0, i32 3
  %14 = load i64, ptr %13, align 8, !tbaa !19
  %15 = call noalias ptr @zmalloc(i64 noundef %14) #11
  store ptr %15, ptr %4, align 8, !tbaa !29
  call void @llvm.lifetime.start.p0(i64 8, ptr %5) #10
  %16 = load ptr, ptr %3, align 8, !tbaa !12
  %17 = getelementptr inbounds nuw %struct.quicklistNode, ptr %16, i32 0, i32 2
  %18 = load ptr, ptr %17, align 8, !tbaa !16
  store ptr %18, ptr %5, align 8, !tbaa !27
  %19 = load ptr, ptr %5, align 8, !tbaa !27
  %20 = getelementptr inbounds nuw %struct.quicklistLZF, ptr %19, i32 0, i32 1
  %21 = getelementptr inbounds [0 x i8], ptr %20, i64 0, i64 0
  %22 = load ptr, ptr %5, align 8, !tbaa !27
  %23 = getelementptr inbounds nuw %struct.quicklistLZF, ptr %22, i32 0, i32 0
  %24 = load i64, ptr %23, align 8, !tbaa !5
  %25 = load ptr, ptr %4, align 8, !tbaa !29
  %26 = load ptr, ptr %3, align 8, !tbaa !12
  %27 = getelementptr inbounds nuw %struct.quicklistNode, ptr %26, i32 0, i32 3
  %28 = load i64, ptr %27, align 8, !tbaa !19
  %29 = call i64 @lzf_decompress(ptr noundef %21, i64 noundef %24, ptr noundef %25, i64 noundef %28)
  %30 = icmp eq i64 %29, 0
  br i1 %30, label %31, label %33

31:                                               ; preds = %1
  %32 = load ptr, ptr %4, align 8, !tbaa !29
  call void @zfree(ptr noundef %32)
  store i32 0, ptr %2, align 4
  store i32 1, ptr %6, align 4
  br label %43

33:                                               ; preds = %1
  %34 = load ptr, ptr %5, align 8, !tbaa !27
  call void @zfree(ptr noundef %34)
  %35 = load ptr, ptr %4, align 8, !tbaa !29
  %36 = load ptr, ptr %3, align 8, !tbaa !12
  %37 = getelementptr inbounds nuw %struct.quicklistNode, ptr %36, i32 0, i32 2
  store ptr %35, ptr %37, align 8, !tbaa !16
  %38 = load ptr, ptr %3, align 8, !tbaa !12
  %39 = getelementptr inbounds nuw %struct.quicklistNode, ptr %38, i32 0, i32 4
  %40 = load i32, ptr %39, align 8
  %41 = and i32 %40, -196609
  %42 = or i32 %41, 65536
  store i32 %42, ptr %39, align 8
  store i32 1, ptr %2, align 4
  store i32 1, ptr %6, align 4
  br label %43

43:                                               ; preds = %33, %31
  call void @llvm.lifetime.end.p0(i64 8, ptr %5) #10
  call void @llvm.lifetime.end.p0(i64 8, ptr %4) #10
  %44 = load i32, ptr %2, align 4
  ret i32 %44
}

; Function Attrs: nounwind uwtable
define dso_local ptr @_quicklistListpackMerge(ptr noundef %0, ptr noundef %1, ptr noundef %2) #0 {
  %4 = alloca ptr, align 8
  %5 = alloca ptr, align 8
  %6 = alloca ptr, align 8
  %7 = alloca ptr, align 8
  %8 = alloca ptr, align 8
  %9 = alloca ptr, align 8
  store ptr %0, ptr %5, align 8, !tbaa !9
  store ptr %1, ptr %6, align 8, !tbaa !12
  store ptr %2, ptr %7, align 8, !tbaa !12
  br label %10

10:                                               ; preds = %3
  %11 = load ptr, ptr %6, align 8, !tbaa !12
  %12 = icmp ne ptr %11, null
  br i1 %12, label %13, label %23

13:                                               ; preds = %10
  %14 = load ptr, ptr %6, align 8, !tbaa !12
  %15 = getelementptr inbounds nuw %struct.quicklistNode, ptr %14, i32 0, i32 4
  %16 = load i32, ptr %15, align 8
  %17 = lshr i32 %16, 16
  %18 = and i32 %17, 3
  %19 = icmp eq i32 %18, 2
  br i1 %19, label %20, label %23

20:                                               ; preds = %13
  %21 = load ptr, ptr %6, align 8, !tbaa !12
  %22 = call i32 @__quicklistDecompressNode(ptr noundef %21)
  br label %23

23:                                               ; preds = %20, %13, %10
  br label %24

24:                                               ; preds = %23
  br label %25

25:                                               ; preds = %24
  %26 = load ptr, ptr %7, align 8, !tbaa !12
  %27 = icmp ne ptr %26, null
  br i1 %27, label %28, label %38

28:                                               ; preds = %25
  %29 = load ptr, ptr %7, align 8, !tbaa !12
  %30 = getelementptr inbounds nuw %struct.quicklistNode, ptr %29, i32 0, i32 4
  %31 = load i32, ptr %30, align 8
  %32 = lshr i32 %31, 16
  %33 = and i32 %32, 3
  %34 = icmp eq i32 %33, 2
  br i1 %34, label %35, label %38

35:                                               ; preds = %28
  %36 = load ptr, ptr %7, align 8, !tbaa !12
  %37 = call i32 @__quicklistDecompressNode(ptr noundef %36)
  br label %38

38:                                               ; preds = %35, %28, %25
  br label %39

39:                                               ; preds = %38
  %40 = load ptr, ptr %6, align 8, !tbaa !12
  %41 = getelementptr inbounds nuw %struct.quicklistNode, ptr %40, i32 0, i32 2
  %42 = load ptr, ptr %7, align 8, !tbaa !12
  %43 = getelementptr inbounds nuw %struct.quicklistNode, ptr %42, i32 0, i32 2
  %44 = call ptr @lpMerge(ptr noundef %41, ptr noundef %43)
  %45 = icmp ne ptr %44, null
  br i1 %45, label %46, label %127

46:                                               ; preds = %39
  call void @llvm.lifetime.start.p0(i64 8, ptr %8) #10
  store ptr null, ptr %8, align 8, !tbaa !12
  call void @llvm.lifetime.start.p0(i64 8, ptr %9) #10
  store ptr null, ptr %9, align 8, !tbaa !12
  %47 = load ptr, ptr %6, align 8, !tbaa !12
  %48 = getelementptr inbounds nuw %struct.quicklistNode, ptr %47, i32 0, i32 2
  %49 = load ptr, ptr %48, align 8, !tbaa !16
  %50 = icmp ne ptr %49, null
  br i1 %50, label %54, label %51

51:                                               ; preds = %46
  %52 = load ptr, ptr %6, align 8, !tbaa !12
  store ptr %52, ptr %9, align 8, !tbaa !12
  %53 = load ptr, ptr %7, align 8, !tbaa !12
  store ptr %53, ptr %8, align 8, !tbaa !12
  br label %63

54:                                               ; preds = %46
  %55 = load ptr, ptr %7, align 8, !tbaa !12
  %56 = getelementptr inbounds nuw %struct.quicklistNode, ptr %55, i32 0, i32 2
  %57 = load ptr, ptr %56, align 8, !tbaa !16
  %58 = icmp ne ptr %57, null
  br i1 %58, label %62, label %59

59:                                               ; preds = %54
  %60 = load ptr, ptr %7, align 8, !tbaa !12
  store ptr %60, ptr %9, align 8, !tbaa !12
  %61 = load ptr, ptr %6, align 8, !tbaa !12
  store ptr %61, ptr %8, align 8, !tbaa !12
  br label %62

62:                                               ; preds = %59, %54
  br label %63

63:                                               ; preds = %62, %51
  %64 = load ptr, ptr %8, align 8, !tbaa !12
  %65 = getelementptr inbounds nuw %struct.quicklistNode, ptr %64, i32 0, i32 2
  %66 = load ptr, ptr %65, align 8, !tbaa !16
  %67 = call i64 @lpLength(ptr noundef %66)
  %68 = trunc i64 %67 to i32
  %69 = load ptr, ptr %8, align 8, !tbaa !12
  %70 = getelementptr inbounds nuw %struct.quicklistNode, ptr %69, i32 0, i32 4
  %71 = load i32, ptr %70, align 8
  %72 = and i32 %68, 65535
  %73 = and i32 %71, -65536
  %74 = or i32 %73, %72
  store i32 %74, ptr %70, align 8
  br label %75

75:                                               ; preds = %63
  %76 = load ptr, ptr %8, align 8, !tbaa !12
  %77 = getelementptr inbounds nuw %struct.quicklistNode, ptr %76, i32 0, i32 2
  %78 = load ptr, ptr %77, align 8, !tbaa !16
  %79 = call i64 @lpBytes(ptr noundef %78)
  %80 = load ptr, ptr %8, align 8, !tbaa !12
  %81 = getelementptr inbounds nuw %struct.quicklistNode, ptr %80, i32 0, i32 3
  store i64 %79, ptr %81, align 8, !tbaa !19
  br label %82

82:                                               ; preds = %75
  br label %83

83:                                               ; preds = %82
  %84 = load ptr, ptr %8, align 8, !tbaa !12
  %85 = getelementptr inbounds nuw %struct.quicklistNode, ptr %84, i32 0, i32 4
  %86 = load i32, ptr %85, align 8
  %87 = and i32 %86, -1048577
  %88 = or i32 %87, 0
  store i32 %88, ptr %85, align 8
  %89 = load ptr, ptr %9, align 8, !tbaa !12
  %90 = getelementptr inbounds nuw %struct.quicklistNode, ptr %89, i32 0, i32 4
  %91 = load i32, ptr %90, align 8
  %92 = and i32 %91, -65536
  %93 = or i32 %92, 0
  store i32 %93, ptr %90, align 8
  %94 = load ptr, ptr %5, align 8, !tbaa !9
  %95 = load ptr, ptr %9, align 8, !tbaa !12
  call void @__quicklistDelNode(ptr noundef %94, ptr noundef %95)
  br label %96

96:                                               ; preds = %83
  %97 = load ptr, ptr %8, align 8, !tbaa !12
  %98 = getelementptr inbounds nuw %struct.quicklistNode, ptr %97, i32 0, i32 4
  %99 = load i32, ptr %98, align 8
  %100 = lshr i32 %99, 20
  %101 = and i32 %100, 1
  %102 = icmp ne i32 %101, 0
  br i1 %102, label %103, label %120

103:                                              ; preds = %96
  br label %104

104:                                              ; preds = %103
  %105 = load ptr, ptr %8, align 8, !tbaa !12
  %106 = icmp ne ptr %105, null
  br i1 %106, label %107, label %117

107:                                              ; preds = %104
  %108 = load ptr, ptr %8, align 8, !tbaa !12
  %109 = getelementptr inbounds nuw %struct.quicklistNode, ptr %108, i32 0, i32 4
  %110 = load i32, ptr %109, align 8
  %111 = lshr i32 %110, 16
  %112 = and i32 %111, 3
  %113 = icmp eq i32 %112, 1
  br i1 %113, label %114, label %117

114:                                              ; preds = %107
  %115 = load ptr, ptr %8, align 8, !tbaa !12
  %116 = call i32 @__quicklistCompressNode(ptr noundef %115)
  br label %117

117:                                              ; preds = %114, %107, %104
  br label %118

118:                                              ; preds = %117
  br label %119

119:                                              ; preds = %118
  br label %123

120:                                              ; preds = %96
  %121 = load ptr, ptr %5, align 8, !tbaa !9
  %122 = load ptr, ptr %8, align 8, !tbaa !12
  call void @__quicklistCompress(ptr noundef %121, ptr noundef %122)
  br label %123

123:                                              ; preds = %120, %119
  br label %124

124:                                              ; preds = %123
  br label %125

125:                                              ; preds = %124
  %126 = load ptr, ptr %8, align 8, !tbaa !12
  store ptr %126, ptr %4, align 8
  call void @llvm.lifetime.end.p0(i64 8, ptr %9) #10
  call void @llvm.lifetime.end.p0(i64 8, ptr %8) #10
  br label %128

127:                                              ; preds = %39
  store ptr null, ptr %4, align 8
  br label %128

128:                                              ; preds = %127, %125
  %129 = load ptr, ptr %4, align 8
  ret ptr %129
}