; Function Attrs: nounwind uwtable
define dso_local ptr @_quicklistListpackMerge(ptr noundef %0, ptr noundef %1, ptr noundef %2) local_unnamed_addr #1 {
  %.not = icmp eq ptr %1, null
  br i1 %.not, label %__quicklistDecompressNode.exit, label %4

4:                                                ; preds = %3
  %5 = getelementptr inbounds nuw i8, ptr %1, i64 32
  %6 = load i32, ptr %5, align 8
  %7 = and i32 %6, 196608
  %8 = icmp eq i32 %7, 131072
  br i1 %8, label %9, label %__quicklistDecompressNode.exit

9:                                                ; preds = %4
  %10 = and i32 %6, -1114113
  store i32 %10, ptr %5, align 8
  %11 = getelementptr inbounds nuw i8, ptr %1, i64 24
  %12 = load i64, ptr %11, align 8, !tbaa !15
  %13 = tail call noalias ptr @zmalloc(i64 noundef %12) #22
  %14 = getelementptr inbounds nuw i8, ptr %1, i64 16
  %15 = load ptr, ptr %14, align 8, !tbaa !9
  %16 = getelementptr inbounds nuw i8, ptr %15, i64 8
  %17 = load i64, ptr %15, align 8, !tbaa !5
  %18 = load i64, ptr %11, align 8, !tbaa !15
  %19 = tail call i64 @lzf_decompress(ptr noundef nonnull %16, i64 noundef %17, ptr noundef %13, i64 noundef %18) #23
  %20 = icmp eq i64 %19, 0
  br i1 %20, label %21, label %22

21:                                               ; preds = %9
  tail call void @zfree(ptr noundef %13) #23
  br label %__quicklistDecompressNode.exit

22:                                               ; preds = %9
  tail call void @zfree(ptr noundef nonnull %15) #23
  store ptr %13, ptr %14, align 8, !tbaa !9
  %23 = load i32, ptr %5, align 8
  %24 = and i32 %23, -196609
  %25 = or disjoint i32 %24, 65536
  store i32 %25, ptr %5, align 8
  br label %__quicklistDecompressNode.exit

__quicklistDecompressNode.exit:                   ; preds = %22, %21, %4, %3
  %.not34 = icmp eq ptr %2, null
  br i1 %.not34, label %__quicklistDecompressNode.exit43, label %26

26:                                               ; preds = %__quicklistDecompressNode.exit
  %27 = getelementptr inbounds nuw i8, ptr %2, i64 32
  %28 = load i32, ptr %27, align 8
  %29 = and i32 %28, 196608
  %30 = icmp eq i32 %29, 131072
  br i1 %30, label %31, label %__quicklistDecompressNode.exit43

31:                                               ; preds = %26
  %32 = and i32 %28, -1114113
  store i32 %32, ptr %27, align 8
  %33 = getelementptr inbounds nuw i8, ptr %2, i64 24
  %34 = load i64, ptr %33, align 8, !tbaa !15
  %35 = tail call noalias ptr @zmalloc(i64 noundef %34) #22
  %36 = getelementptr inbounds nuw i8, ptr %2, i64 16
  %37 = load ptr, ptr %36, align 8, !tbaa !9
  %38 = getelementptr inbounds nuw i8, ptr %37, i64 8
  %39 = load i64, ptr %37, align 8, !tbaa !5
  %40 = load i64, ptr %33, align 8, !tbaa !15
  %41 = tail call i64 @lzf_decompress(ptr noundef nonnull %38, i64 noundef %39, ptr noundef %35, i64 noundef %40) #23
  %42 = icmp eq i64 %41, 0
  br i1 %42, label %43, label %44

43:                                               ; preds = %31
  tail call void @zfree(ptr noundef %35) #23
  br label %__quicklistDecompressNode.exit43

44:                                               ; preds = %31
  tail call void @zfree(ptr noundef nonnull %37) #23
  store ptr %35, ptr %36, align 8, !tbaa !9
  %45 = load i32, ptr %27, align 8
  %46 = and i32 %45, -196609
  %47 = or disjoint i32 %46, 65536
  store i32 %47, ptr %27, align 8
  br label %__quicklistDecompressNode.exit43

__quicklistDecompressNode.exit43:                 ; preds = %44, %43, %__quicklistDecompressNode.exit, %26
  %48 = getelementptr inbounds nuw i8, ptr %1, i64 16
  %49 = getelementptr inbounds nuw i8, ptr %2, i64 16
  %50 = tail call ptr @lpMerge(ptr noundef nonnull %48, ptr noundef nonnull %49) #23
  %.not35 = icmp eq ptr %50, null
  br i1 %.not35, label %81, label %51

51:                                               ; preds = %__quicklistDecompressNode.exit43
  %52 = load ptr, ptr %48, align 8, !tbaa !9
  %.not36 = icmp eq ptr %52, null
  br i1 %.not36, label %55, label %53

53:                                               ; preds = %51
  %54 = load ptr, ptr %49, align 8, !tbaa !9
  %.not37 = icmp eq ptr %54, null
  %spec.select = select i1 %.not37, ptr %1, ptr null
  %spec.select40 = select i1 %.not37, ptr %2, ptr null
  br label %55

55:                                               ; preds = %53, %51
  %.030 = phi ptr [ %2, %51 ], [ %spec.select, %53 ]
  %.0 = phi ptr [ %1, %51 ], [ %spec.select40, %53 ]
  %56 = getelementptr inbounds nuw i8, ptr %.030, i64 16
  %57 = load ptr, ptr %56, align 8, !tbaa !9
  %58 = tail call i64 @lpLength(ptr noundef %57) #23
  %59 = trunc i64 %58 to i32
  %60 = getelementptr inbounds nuw i8, ptr %.030, i64 32
  %61 = load i32, ptr %60, align 8
  %62 = and i32 %59, 65535
  %63 = and i32 %61, -65536
  %64 = or disjoint i32 %63, %62
  store i32 %64, ptr %60, align 8
  %65 = load ptr, ptr %56, align 8, !tbaa !9
  %66 = tail call i64 @lpBytes(ptr noundef %65) #23
  %67 = getelementptr inbounds nuw i8, ptr %.030, i64 24
  store i64 %66, ptr %67, align 8, !tbaa !15
  %68 = load i32, ptr %60, align 8
  %69 = and i32 %68, -1048577
  store i32 %69, ptr %60, align 8
  %70 = getelementptr inbounds nuw i8, ptr %.0, i64 32
  %71 = load i32, ptr %70, align 8
  %72 = and i32 %71, -65536
  store i32 %72, ptr %70, align 8
  tail call void @__quicklistDelNode(ptr noundef %0, ptr noundef %.0)
  %73 = load i32, ptr %60, align 8
  %74 = and i32 %73, 1048576
  %.not38 = icmp eq i32 %74, 0
  br i1 %.not38, label %80, label %75

75:                                               ; preds = %55
  %76 = and i32 %73, 196608
  %77 = icmp eq i32 %76, 65536
  br i1 %77, label %78, label %81

78:                                               ; preds = %75
  %79 = tail call i32 @__quicklistCompressNode(ptr noundef nonnull %.030)
  br label %81

80:                                               ; preds = %55
  tail call void @__quicklistCompress(ptr noundef %0, ptr noundef nonnull %.030)
  br label %81

81:                                               ; preds = %__quicklistDecompressNode.exit43, %80, %78, %75
  %.031 = phi ptr [ %.030, %75 ], [ %.030, %78 ], [ %.030, %80 ], [ null, %__quicklistDecompressNode.exit43 ]
  ret ptr %.031
}